target datalayout = "e-m:e-p270:32:32-p271:32:32-p272:64:64-i64:64-i128:128-f80:128-n8:16:32:64-S128"
target triple = "x86_64-pc-linux-gnu"

%union.anon.2 = type { i64 }

@tty = external global ptr, align 8
@.str.14 = private unnamed_addr constant [6 x i8] c"false\00", align 1
@.str.15 = private unnamed_addr constant [5 x i8] c"true\00", align 1
@.str.16 = private unnamed_addr constant [3 x i8] c"%d\00", align 1
@.str.17 = private unnamed_addr constant [3 x i8] c"%c\00", align 1
@.str.18 = private unnamed_addr constant [3 x i8] c"%f\00", align 1
@.str.19 = private unnamed_addr constant [4 x i8] c"%ld\00", align 1
@.str.20 = private unnamed_addr constant [4 x i8] c"%lf\00", align 1

; Function Attrs: mustprogress nounwind uwtable
define linkonce_odr hidden void @_ZN2os22verify_stack_alignmentEv() #1 comdat align 2 {
  ret void
}

; Function Attrs: mustprogress nounwind uwtable
define hidden void @_ZN12JVMCIRuntime13log_primitiveEP10JavaThreadtlh(ptr noundef %0, i16 noundef zeroext %1, i64 noundef %2, i8 noundef zeroext %3) #1 align 2 {
  %5 = alloca ptr, align 8
  %6 = alloca i16, align 2
  %7 = alloca i64, align 8
  %8 = alloca i8, align 1
  %9 = alloca %union.anon.2, align 8
  store ptr %0, ptr %5, align 8
  store i16 %1, ptr %6, align 2
  store i64 %2, ptr %7, align 8
  store i8 %3, ptr %8, align 1
  call void @_ZN2os22verify_stack_alignmentEv()
  %10 = load i64, ptr %7, align 8
  store i64 %10, ptr %9, align 8
  %11 = load i16, ptr %6, align 2
  %12 = zext i16 %11 to i32
  switch i32 %12, label %47 [
    i32 90, label %13
    i32 66, label %18
    i32 67, label %23
    i32 83, label %28
    i32 73, label %33
    i32 70, label %37
    i32 74, label %41
    i32 68, label %44
  ]

13:                                               ; preds = %4
  %14 = load ptr, ptr @tty, align 8
  %15 = load i64, ptr %7, align 8
  %16 = icmp eq i64 %15, 0
  %17 = select i1 %16, ptr @.str.14, ptr @.str.15
  call void (ptr, ptr, ...) @_ZN12outputStream5printEPKcz(ptr noundef nonnull align 8 dereferenceable(56) %14, ptr noundef %17)
  br label %48

18:                                               ; preds = %4
  %19 = load ptr, ptr @tty, align 8
  %20 = load i64, ptr %7, align 8
  %21 = trunc i64 %20 to i8
  %22 = sext i8 %21 to i32
  call void (ptr, ptr, ...) @_ZN12outputStream5printEPKcz(ptr noundef nonnull align 8 dereferenceable(56) %19, ptr noundef @.str.16, i32 noundef %22)
  br label %48

23:                                               ; preds = %4
  %24 = load ptr, ptr @tty, align 8
  %25 = load i64, ptr %7, align 8
  %26 = trunc i64 %25 to i16
  %27 = zext i16 %26 to i32
  call void (ptr, ptr, ...) @_ZN12outputStream5printEPKcz(ptr noundef nonnull align 8 dereferenceable(56) %24, ptr noundef @.str.17, i32 noundef %27)
  br label %48

28:                                               ; preds = %4
  %29 = load ptr, ptr @tty, align 8
  %30 = load i64, ptr %7, align 8
  %31 = trunc i64 %30 to i16
  %32 = sext i16 %31 to i32
  call void (ptr, ptr, ...) @_ZN12outputStream5printEPKcz(ptr noundef nonnull align 8 dereferenceable(56) %29, ptr noundef @.str.16, i32 noundef %32)
  br label %48

33:                                               ; preds = %4
  %34 = load ptr, ptr @tty, align 8
  %35 = load i64, ptr %7, align 8
  %36 = trunc i64 %35 to i32
  call void (ptr, ptr, ...) @_ZN12outputStream5printEPKcz(ptr noundef nonnull align 8 dereferenceable(56) %34, ptr noundef @.str.16, i32 noundef %36)
  br label %48

37:                                               ; preds = %4
  %38 = load ptr, ptr @tty, align 8
  %39 = load float, ptr %9, align 8
  %40 = fpext float %39 to double
  call void (ptr, ptr, ...) @_ZN12outputStream5printEPKcz(ptr noundef nonnull align 8 dereferenceable(56) %38, ptr noundef @.str.18, double noundef %40)
  br label %48

41:                                               ; preds = %4
  %42 = load ptr, ptr @tty, align 8
  %43 = load i64, ptr %7, align 8
  call void (ptr, ptr, ...) @_ZN12outputStream5printEPKcz(ptr noundef nonnull align 8 dereferenceable(56) %42, ptr noundef @.str.19, i64 noundef %43)
  br label %48

44:                                               ; preds = %4
  %45 = load ptr, ptr @tty, align 8
  %46 = load double, ptr %9, align 8
  call void (ptr, ptr, ...) @_ZN12outputStream5printEPKcz(ptr noundef nonnull align 8 dereferenceable(56) %45, ptr noundef @.str.20, double noundef %46)
  br label %48

47:                                               ; preds = %4
  br label %48

48:                                               ; preds = %47, %44, %41, %37, %33, %28, %23, %18, %13
  %49 = load i8, ptr %8, align 1
  %50 = icmp ne i8 %49, 0
  br i1 %50, label %51, label %53

51:                                               ; preds = %48
  %52 = load ptr, ptr @tty, align 8
  call void @_ZN12outputStream2crEv(ptr noundef nonnull align 8 dereferenceable(56) %52)
  br label %53

53:                                               ; preds = %51, %48
  ret void
}