; Function Attrs: mustprogress nounwind uwtable
define hidden void @_ZN12JVMCIRuntime13log_primitiveEP10JavaThreadtlh(ptr nocapture noundef readnone %0, i16 noundef zeroext %1, i64 noundef %2, i8 noundef zeroext %3) local_unnamed_addr #0 align 2 {
  switch i16 %1, label %33 [
    i16 90, label %5
    i16 66, label %9
    i16 67, label %13
    i16 83, label %17
    i16 73, label %21
    i16 70, label %24
    i16 74, label %28
    i16 68, label %30
  ]

5:                                                ; preds = %4
  %6 = load ptr, ptr @tty, align 8
  %7 = icmp eq i64 %2, 0
  %8 = select i1 %7, ptr @.str.14, ptr @.str.15
  tail call void (ptr, ptr, ...) @_ZN12outputStream5printEPKcz(ptr noundef nonnull align 8 dereferenceable(56) %6, ptr noundef nonnull %8) #15
  br label %33

9:                                                ; preds = %4
  %10 = load ptr, ptr @tty, align 8
  %11 = trunc i64 %2 to i32
  %sext49 = shl i32 %11, 24
  %12 = ashr exact i32 %sext49, 24
  tail call void (ptr, ptr, ...) @_ZN12outputStream5printEPKcz(ptr noundef nonnull align 8 dereferenceable(56) %10, ptr noundef nonnull @.str.16, i32 noundef %12) #15
  br label %33

13:                                               ; preds = %4
  %14 = load ptr, ptr @tty, align 8
  %15 = trunc i64 %2 to i32
  %16 = and i32 %15, 65535
  tail call void (ptr, ptr, ...) @_ZN12outputStream5printEPKcz(ptr noundef nonnull align 8 dereferenceable(56) %14, ptr noundef nonnull @.str.17, i32 noundef %16) #15
  br label %33

17:                                               ; preds = %4
  %18 = load ptr, ptr @tty, align 8
  %19 = trunc i64 %2 to i32
  %sext = shl i32 %19, 16
  %20 = ashr exact i32 %sext, 16
  tail call void (ptr, ptr, ...) @_ZN12outputStream5printEPKcz(ptr noundef nonnull align 8 dereferenceable(56) %18, ptr noundef nonnull @.str.16, i32 noundef %20) #15
  br label %33

21:                                               ; preds = %4
  %22 = load ptr, ptr @tty, align 8
  %23 = trunc i64 %2 to i32
  tail call void (ptr, ptr, ...) @_ZN12outputStream5printEPKcz(ptr noundef nonnull align 8 dereferenceable(56) %22, ptr noundef nonnull @.str.16, i32 noundef %23) #15
  br label %33

24:                                               ; preds = %4
  %.sroa.0.0.extract.trunc = trunc i64 %2 to i32
  %25 = load ptr, ptr @tty, align 8
  %26 = bitcast i32 %.sroa.0.0.extract.trunc to float
  %27 = fpext float %26 to double
  tail call void (ptr, ptr, ...) @_ZN12outputStream5printEPKcz(ptr noundef nonnull align 8 dereferenceable(56) %25, ptr noundef nonnull @.str.18, double noundef %27) #15
  br label %33

28:                                               ; preds = %4
  %29 = load ptr, ptr @tty, align 8
  tail call void (ptr, ptr, ...) @_ZN12outputStream5printEPKcz(ptr noundef nonnull align 8 dereferenceable(56) %29, ptr noundef nonnull @.str.19, i64 noundef %2) #15
  br label %33

30:                                               ; preds = %4
  %31 = load ptr, ptr @tty, align 8
  %32 = bitcast i64 %2 to double
  tail call void (ptr, ptr, ...) @_ZN12outputStream5printEPKcz(ptr noundef nonnull align 8 dereferenceable(56) %31, ptr noundef nonnull @.str.20, double noundef %32) #15
  br label %33

33:                                               ; preds = %4, %30, %28, %24, %21, %17, %13, %9, %5
  %.not = icmp eq i8 %3, 0
  br i1 %.not, label %36, label %34

34:                                               ; preds = %33
  %35 = load ptr, ptr @tty, align 8
  tail call void @_ZN12outputStream2crEv(ptr noundef nonnull align 8 dereferenceable(56) %35) #15
  br label %36

36:                                               ; preds = %34, %33
  ret void
}